target datalayout = "e-m:e-p270:32:32-p271:32:32-p272:64:64-i64:64-i128:128-f80:128-n8:16:32:64-S128"
target triple = "x86_64-pc-linux-gnu"

%"class.std::__cxx11::basic_string" = type { %"struct.std::__cxx11::basic_string<char>::_Alloc_hider", i64, %union.anon }
%"struct.std::__cxx11::basic_string<char>::_Alloc_hider" = type { ptr }
%union.anon = type { i64, [8 x i8] }
%"class.std::allocator" = type { i8 }

@_ZTISt13runtime_error = external constant ptr
@.str.22 = private unnamed_addr constant [14 x i8] c"vertex shader\00", align 1
@.str.23 = private unnamed_addr constant [16 x i8] c"fragment shader\00", align 1
@.str.24 = private unnamed_addr constant [16 x i8] c"geometry shader\00", align 1
@.str.25 = private unnamed_addr constant [20 x i8] c"unknown shader type\00", align 1
@.str.26 = private unnamed_addr constant [40 x i8] c"compile_gl_shader(): unable to compile \00", align 1
@.str.27 = private unnamed_addr constant [3 x i8] c" \22\00", align 1
@.str.28 = private unnamed_addr constant [5 x i8] c"\22:\0A\0A\00", align 1

; Function Attrs: mustprogress uwtable
define linkonce_odr dso_local void @_ZStplIcSt11char_traitsIcESaIcEENSt7__cxx1112basic_stringIT_T0_T1_EEOS8_RKS8_(ptr dead_on_unwind noalias writable sret(%"class.std::__cxx11::basic_string") align 8 %0, ptr noundef nonnull align 8 dereferenceable(32) %1, ptr noundef nonnull align 8 dereferenceable(32) %2) #0 comdat {
  %4 = alloca ptr, align 8
  %5 = alloca ptr, align 8
  %6 = alloca ptr, align 8
  store ptr %0, ptr %4, align 8
  store ptr %1, ptr %5, align 8
  store ptr %2, ptr %6, align 8
  %7 = load ptr, ptr %5, align 8
  %8 = load ptr, ptr %6, align 8
  %9 = call noundef nonnull align 8 dereferenceable(32) ptr @_ZNSt7__cxx1112basic_stringIcSt11char_traitsIcESaIcEE6appendERKS4_(ptr noundef nonnull align 8 dereferenceable(32) %7, ptr noundef nonnull align 8 dereferenceable(32) %8)
  call void @_ZNSt7__cxx1112basic_stringIcSt11char_traitsIcESaIcEEC1EOS4_(ptr noundef nonnull align 8 dereferenceable(32) %0, ptr noundef nonnull align 8 dereferenceable(32) %9) #11
  ret void
}

; Function Attrs: mustprogress uwtable
define linkonce_odr dso_local void @_ZStplIcSt11char_traitsIcESaIcEENSt7__cxx1112basic_stringIT_T0_T1_EEOS8_PKS5_(ptr dead_on_unwind noalias writable sret(%"class.std::__cxx11::basic_string") align 8 %0, ptr noundef nonnull align 8 dereferenceable(32) %1, ptr noundef %2) #0 comdat {
  %4 = alloca ptr, align 8
  %5 = alloca ptr, align 8
  %6 = alloca ptr, align 8
  store ptr %0, ptr %4, align 8
  store ptr %1, ptr %5, align 8
  store ptr %2, ptr %6, align 8
  %7 = load ptr, ptr %5, align 8
  %8 = load ptr, ptr %6, align 8
  %9 = call noundef nonnull align 8 dereferenceable(32) ptr @_ZNSt7__cxx1112basic_stringIcSt11char_traitsIcESaIcEE6appendEPKc(ptr noundef nonnull align 8 dereferenceable(32) %7, ptr noundef %8)
  call void @_ZNSt7__cxx1112basic_stringIcSt11char_traitsIcESaIcEEC1EOS4_(ptr noundef nonnull align 8 dereferenceable(32) %0, ptr noundef nonnull align 8 dereferenceable(32) %9) #11
  ret void
}

; Function Attrs: mustprogress uwtable
define internal noundef i32 @_ZN7nanoguiL17compile_gl_shaderEjRKNSt7__cxx1112basic_stringIcSt11char_traitsIcESaIcEEES7_(i32 noundef %0, ptr noundef nonnull align 8 dereferenceable(32) %1, ptr noundef nonnull align 8 dereferenceable(32) %2) #0 personality ptr @__gxx_personality_v0 {
  %4 = alloca i32, align 4
  %5 = alloca i32, align 4
  %6 = alloca ptr, align 8
  %7 = alloca ptr, align 8
  %8 = alloca i32, align 4
  %9 = alloca ptr, align 8
  %10 = alloca i32, align 4
  %11 = alloca ptr, align 8
  %12 = alloca [4096 x i8], align 16
  %13 = alloca %"class.std::__cxx11::basic_string", align 8
  %14 = alloca %"class.std::__cxx11::basic_string", align 8
  %15 = alloca %"class.std::__cxx11::basic_string", align 8
  %16 = alloca %"class.std::__cxx11::basic_string", align 8
  %17 = alloca %"class.std::__cxx11::basic_string", align 8
  %18 = alloca %"class.std::__cxx11::basic_string", align 8
  %19 = alloca %"class.std::allocator", align 1
  %20 = alloca ptr, align 8
  %21 = alloca i32, align 4
  store i32 %0, ptr %5, align 4
  store ptr %1, ptr %6, align 8
  store ptr %2, ptr %7, align 8
  %22 = load ptr, ptr %7, align 8
  %23 = call noundef zeroext i1 @_ZNKSt7__cxx1112basic_stringIcSt11char_traitsIcESaIcEE5emptyEv(ptr noundef nonnull align 8 dereferenceable(32) %22) #11
  br i1 %23, label %24, label %25

24:                                               ; preds = %3
  store i32 0, ptr %4, align 4
  br label %104

25:                                               ; preds = %3
  %26 = load i32, ptr %5, align 4
  %27 = call i32 @glCreateShader(i32 noundef %26)
  store i32 %27, ptr %8, align 4
  %28 = load ptr, ptr %7, align 8
  %29 = call noundef ptr @_ZNKSt7__cxx1112basic_stringIcSt11char_traitsIcESaIcEE5c_strEv(ptr noundef nonnull align 8 dereferenceable(32) %28) #11
  store ptr %29, ptr %9, align 8
  %30 = load i32, ptr %8, align 4
  call void @glShaderSource(i32 noundef %30, i32 noundef 1, ptr noundef %9, ptr noundef null)
  %31 = load i32, ptr %8, align 4
  call void @glCompileShader(i32 noundef %31)
  %32 = load i32, ptr %8, align 4
  call void @glGetShaderiv(i32 noundef %32, i32 noundef 35713, ptr noundef %10)
  %33 = load i32, ptr %10, align 4
  %34 = icmp ne i32 %33, 1
  br i1 %34, label %35, label %102

35:                                               ; preds = %25
  store ptr null, ptr %11, align 8
  %36 = load i32, ptr %5, align 4
  %37 = icmp eq i32 %36, 35633
  br i1 %37, label %38, label %39

38:                                               ; preds = %35
  store ptr @.str.22, ptr %11, align 8
  br label %50

39:                                               ; preds = %35
  %40 = load i32, ptr %5, align 4
  %41 = icmp eq i32 %40, 35632
  br i1 %41, label %42, label %43

42:                                               ; preds = %39
  store ptr @.str.23, ptr %11, align 8
  br label %49

43:                                               ; preds = %39
  %44 = load i32, ptr %5, align 4
  %45 = icmp eq i32 %44, 36313
  br i1 %45, label %46, label %47

46:                                               ; preds = %43
  store ptr @.str.24, ptr %11, align 8
  br label %48

47:                                               ; preds = %43
  store ptr @.str.25, ptr %11, align 8
  br label %48

48:                                               ; preds = %47, %46
  br label %49

49:                                               ; preds = %48, %42
  br label %50

50:                                               ; preds = %49, %38
  %51 = load i32, ptr %8, align 4
  %52 = getelementptr inbounds [4096 x i8], ptr %12, i64 0, i64 0
  call void @glGetShaderInfoLog(i32 noundef %51, i32 noundef 4096, ptr noundef null, ptr noundef %52)
  call void @_ZNSaIcEC1Ev(ptr noundef nonnull align 1 dereferenceable(1) %19) #11
  invoke void @_ZNSt7__cxx1112basic_stringIcSt11char_traitsIcESaIcEEC2IS3_EEPKcRKS3_(ptr noundef nonnull align 8 dereferenceable(32) %18, ptr noundef @.str.26, ptr noundef nonnull align 1 dereferenceable(1) %19)
          to label %53 unwind label %64

53:                                               ; preds = %50
  %54 = load ptr, ptr %11, align 8
  invoke void @_ZStplIcSt11char_traitsIcESaIcEENSt7__cxx1112basic_stringIT_T0_T1_EEOS8_PKS5_(ptr dead_on_unwind writable sret(%"class.std::__cxx11::basic_string") align 8 %17, ptr noundef nonnull align 8 dereferenceable(32) %18, ptr noundef %54)
          to label %55 unwind label %68

55:                                               ; preds = %53
  invoke void @_ZStplIcSt11char_traitsIcESaIcEENSt7__cxx1112basic_stringIT_T0_T1_EEOS8_PKS5_(ptr dead_on_unwind writable sret(%"class.std::__cxx11::basic_string") align 8 %16, ptr noundef nonnull align 8 dereferenceable(32) %17, ptr noundef @.str.27)
          to label %56 unwind label %72

56:                                               ; preds = %55
  %57 = load ptr, ptr %6, align 8
  invoke void @_ZStplIcSt11char_traitsIcESaIcEENSt7__cxx1112basic_stringIT_T0_T1_EEOS8_RKS8_(ptr dead_on_unwind writable sret(%"class.std::__cxx11::basic_string") align 8 %15, ptr noundef nonnull align 8 dereferenceable(32) %16, ptr noundef nonnull align 8 dereferenceable(32) %57)
          to label %58 unwind label %76

58:                                               ; preds = %56
  invoke void @_ZStplIcSt11char_traitsIcESaIcEENSt7__cxx1112basic_stringIT_T0_T1_EEOS8_PKS5_(ptr dead_on_unwind writable sret(%"class.std::__cxx11::basic_string") align 8 %14, ptr noundef nonnull align 8 dereferenceable(32) %15, ptr noundef @.str.28)
          to label %59 unwind label %80

59:                                               ; preds = %58
  %60 = getelementptr inbounds [4096 x i8], ptr %12, i64 0, i64 0
  invoke void @_ZStplIcSt11char_traitsIcESaIcEENSt7__cxx1112basic_stringIT_T0_T1_EEOS8_PKS5_(ptr dead_on_unwind writable sret(%"class.std::__cxx11::basic_string") align 8 %13, ptr noundef nonnull align 8 dereferenceable(32) %14, ptr noundef %60)
          to label %61 unwind label %84

61:                                               ; preds = %59
  call void @_ZNSt7__cxx1112basic_stringIcSt11char_traitsIcESaIcEED1Ev(ptr noundef nonnull align 8 dereferenceable(32) %14) #11
  call void @_ZNSt7__cxx1112basic_stringIcSt11char_traitsIcESaIcEED1Ev(ptr noundef nonnull align 8 dereferenceable(32) %15) #11
  call void @_ZNSt7__cxx1112basic_stringIcSt11char_traitsIcESaIcEED1Ev(ptr noundef nonnull align 8 dereferenceable(32) %16) #11
  call void @_ZNSt7__cxx1112basic_stringIcSt11char_traitsIcESaIcEED1Ev(ptr noundef nonnull align 8 dereferenceable(32) %17) #11
  call void @_ZNSt7__cxx1112basic_stringIcSt11char_traitsIcESaIcEED1Ev(ptr noundef nonnull align 8 dereferenceable(32) %18) #11
  call void @_ZNSaIcED1Ev(ptr noundef nonnull align 1 dereferenceable(1) %19) #11
  %62 = call ptr @__cxa_allocate_exception(i64 16) #11
  invoke void @_ZNSt13runtime_errorC1ERKNSt7__cxx1112basic_stringIcSt11char_traitsIcESaIcEEE(ptr noundef nonnull align 8 dereferenceable(16) %62, ptr noundef nonnull align 8 dereferenceable(32) %13)
          to label %63 unwind label %93

63:                                               ; preds = %61
  invoke void @__cxa_throw(ptr %62, ptr @_ZTISt13runtime_error, ptr @_ZNSt13runtime_errorD1Ev) #12
          to label %111 unwind label %97

64:                                               ; preds = %50
  %65 = landingpad { ptr, i32 }
          cleanup
  %66 = extractvalue { ptr, i32 } %65, 0
  store ptr %66, ptr %20, align 8
  %67 = extractvalue { ptr, i32 } %65, 1
  store i32 %67, ptr %21, align 4
  br label %92

68:                                               ; preds = %53
  %69 = landingpad { ptr, i32 }
          cleanup
  %70 = extractvalue { ptr, i32 } %69, 0
  store ptr %70, ptr %20, align 8
  %71 = extractvalue { ptr, i32 } %69, 1
  store i32 %71, ptr %21, align 4
  br label %91

72:                                               ; preds = %55
  %73 = landingpad { ptr, i32 }
          cleanup
  %74 = extractvalue { ptr, i32 } %73, 0
  store ptr %74, ptr %20, align 8
  %75 = extractvalue { ptr, i32 } %73, 1
  store i32 %75, ptr %21, align 4
  br label %90

76:                                               ; preds = %56
  %77 = landingpad { ptr, i32 }
          cleanup
  %78 = extractvalue { ptr, i32 } %77, 0
  store ptr %78, ptr %20, align 8
  %79 = extractvalue { ptr, i32 } %77, 1
  store i32 %79, ptr %21, align 4
  br label %89

80:                                               ; preds = %58
  %81 = landingpad { ptr, i32 }
          cleanup
  %82 = extractvalue { ptr, i32 } %81, 0
  store ptr %82, ptr %20, align 8
  %83 = extractvalue { ptr, i32 } %81, 1
  store i32 %83, ptr %21, align 4
  br label %88

84:                                               ; preds = %59
  %85 = landingpad { ptr, i32 }
          cleanup
  %86 = extractvalue { ptr, i32 } %85, 0
  store ptr %86, ptr %20, align 8
  %87 = extractvalue { ptr, i32 } %85, 1
  store i32 %87, ptr %21, align 4
  call void @_ZNSt7__cxx1112basic_stringIcSt11char_traitsIcESaIcEED1Ev(ptr noundef nonnull align 8 dereferenceable(32) %14) #11
  br label %88

88:                                               ; preds = %84, %80
  call void @_ZNSt7__cxx1112basic_stringIcSt11char_traitsIcESaIcEED1Ev(ptr noundef nonnull align 8 dereferenceable(32) %15) #11
  br label %89

89:                                               ; preds = %88, %76
  call void @_ZNSt7__cxx1112basic_stringIcSt11char_traitsIcESaIcEED1Ev(ptr noundef nonnull align 8 dereferenceable(32) %16) #11
  br label %90

90:                                               ; preds = %89, %72
  call void @_ZNSt7__cxx1112basic_stringIcSt11char_traitsIcESaIcEED1Ev(ptr noundef nonnull align 8 dereferenceable(32) %17) #11
  br label %91

91:                                               ; preds = %90, %68
  call void @_ZNSt7__cxx1112basic_stringIcSt11char_traitsIcESaIcEED1Ev(ptr noundef nonnull align 8 dereferenceable(32) %18) #11
  br label %92

92:                                               ; preds = %91, %64
  call void @_ZNSaIcED1Ev(ptr noundef nonnull align 1 dereferenceable(1) %19) #11
  br label %106

93:                                               ; preds = %61
  %94 = landingpad { ptr, i32 }
          cleanup
  %95 = extractvalue { ptr, i32 } %94, 0
  store ptr %95, ptr %20, align 8
  %96 = extractvalue { ptr, i32 } %94, 1
  store i32 %96, ptr %21, align 4
  call void @__cxa_free_exception(ptr %62) #11
  br label %101

97:                                               ; preds = %63
  %98 = landingpad { ptr, i32 }
          cleanup
  %99 = extractvalue { ptr, i32 } %98, 0
  store ptr %99, ptr %20, align 8
  %100 = extractvalue { ptr, i32 } %98, 1
  store i32 %100, ptr %21, align 4
  br label %101

101:                                              ; preds = %97, %93
  call void @_ZNSt7__cxx1112basic_stringIcSt11char_traitsIcESaIcEED1Ev(ptr noundef nonnull align 8 dereferenceable(32) %13) #11
  br label %106

102:                                              ; preds = %25
  %103 = load i32, ptr %8, align 4
  store i32 %103, ptr %4, align 4
  br label %104

104:                                              ; preds = %102, %24
  %105 = load i32, ptr %4, align 4
  ret i32 %105

106:                                              ; preds = %101, %92
  %107 = load ptr, ptr %20, align 8
  %108 = load i32, ptr %21, align 4
  %109 = insertvalue { ptr, i32 } poison, ptr %107, 0
  %110 = insertvalue { ptr, i32 } %109, i32 %108, 1
  resume { ptr, i32 } %110

111:                                              ; preds = %63
  unreachable
}